
uart.elf:     file format elf32-littlearm

Disassembly of section .text:

00000000 <_start>:
   0:	e3a00453 	mov	r0, #1392508928	; 0x53000000
   4:	e3a01000 	mov	r1, #0	; 0x0
   8:	e5801000 	str	r1, [r0]
   c:	e59f0044 	ldr	r0, [pc, #68]	; 58 <.text+0x58>
  10:	e3a01005 	mov	r1, #5	; 0x5
  14:	e5801000 	str	r1, [r0]
  18:	ee110f10 	mrc	15, 0, r0, cr1, cr0, {0}
  1c:	e3800103 	orr	r0, r0, #-1073741824	; 0xc0000000
  20:	ee010f10 	mcr	15, 0, r0, cr1, cr0, {0}
  24:	e59f0030 	ldr	r0, [pc, #48]	; 5c <.text+0x5c>
  28:	e59f1030 	ldr	r1, [pc, #48]	; 60 <.text+0x60>
  2c:	e5801000 	str	r1, [r0]
  30:	e3a01000 	mov	r1, #0	; 0x0
  34:	e5910000 	ldr	r0, [r1]
  38:	e5811000 	str	r1, [r1]
  3c:	e5912000 	ldr	r2, [r1]
  40:	e1510002 	cmp	r1, r2
  44:	e59fd018 	ldr	sp, [pc, #24]	; 64 <.text+0x64>
  48:	03a0da01 	moveq	sp, #4096	; 0x1000
  4c:	05810000 	streq	r0, [r1]
  50:	eb0000a8 	bl	2f8 <main>

00000054 <halt>:
  54:	eafffffe 	b	54 <halt>
  58:	4c000014 	stcmi	0, cr0, [r0], {20}
  5c:	4c000004 	stcmi	0, cr0, [r0], {4}
  60:	0005c011 	andeq	ip, r5, r1, lsl r0
  64:	40001000 	andmi	r1, r0, r0

00000068 <set_nor_tacc>:
  68:	e1a0c00d 	mov	ip, sp
  6c:	e92dd800 	stmdb	sp!, {fp, ip, lr, pc}
  70:	e24cb004 	sub	fp, ip, #4	; 0x4
  74:	e24dd004 	sub	sp, sp, #4	; 0x4
  78:	e50b0010 	str	r0, [fp, #-16]
  7c:	e3a01312 	mov	r1, #1207959552	; 0x48000000
  80:	e2811004 	add	r1, r1, #4	; 0x4
  84:	e3a03312 	mov	r3, #1207959552	; 0x48000000
  88:	e2833004 	add	r3, r3, #4	; 0x4
  8c:	e51b2010 	ldr	r2, [fp, #-16]
  90:	e1a02402 	mov	r2, r2, lsl #8
  94:	e5933000 	ldr	r3, [r3]
  98:	e0033002 	and	r3, r3, r2
  9c:	e5813000 	str	r3, [r1]
  a0:	e89da808 	ldmia	sp, {r3, fp, sp, pc}

000000a4 <led_init>:
  a4:	e1a0c00d 	mov	ip, sp
  a8:	e92dd800 	stmdb	sp!, {fp, ip, lr, pc}
  ac:	e24cb004 	sub	fp, ip, #4	; 0x4
  b0:	e3a02456 	mov	r2, #1442840576	; 0x56000000
  b4:	e2822050 	add	r2, r2, #80	; 0x50
  b8:	e3a03456 	mov	r3, #1442840576	; 0x56000000
  bc:	e2833050 	add	r3, r3, #80	; 0x50
  c0:	e5933000 	ldr	r3, [r3]
  c4:	e3c33c3f 	bic	r3, r3, #16128	; 0x3f00
  c8:	e5823000 	str	r3, [r2]
  cc:	e3a02456 	mov	r2, #1442840576	; 0x56000000
  d0:	e2822050 	add	r2, r2, #80	; 0x50
  d4:	e3a03456 	mov	r3, #1442840576	; 0x56000000
  d8:	e2833050 	add	r3, r3, #80	; 0x50
  dc:	e5933000 	ldr	r3, [r3]
  e0:	e3833c15 	orr	r3, r3, #5376	; 0x1500
  e4:	e5823000 	str	r3, [r2]
  e8:	e3a02456 	mov	r2, #1442840576	; 0x56000000
  ec:	e2822054 	add	r2, r2, #84	; 0x54
  f0:	e3a03456 	mov	r3, #1442840576	; 0x56000000
  f4:	e2833054 	add	r3, r3, #84	; 0x54
  f8:	e5933000 	ldr	r3, [r3]
  fc:	e3c33070 	bic	r3, r3, #112	; 0x70
 100:	e5823000 	str	r3, [r2]
 104:	e3a00ffa 	mov	r0, #1000	; 0x3e8
 108:	eb000009 	bl	134 <delay>
 10c:	e3a02456 	mov	r2, #1442840576	; 0x56000000
 110:	e2822054 	add	r2, r2, #84	; 0x54
 114:	e3a03456 	mov	r3, #1442840576	; 0x56000000
 118:	e2833054 	add	r3, r3, #84	; 0x54
 11c:	e5933000 	ldr	r3, [r3]
 120:	e3833070 	orr	r3, r3, #112	; 0x70
 124:	e5823000 	str	r3, [r2]
 128:	e3a00ffa 	mov	r0, #1000	; 0x3e8
 12c:	eb000000 	bl	134 <delay>
 130:	e89da800 	ldmia	sp, {fp, sp, pc}

00000134 <delay>:
 134:	e1a0c00d 	mov	ip, sp
 138:	e92dd800 	stmdb	sp!, {fp, ip, lr, pc}
 13c:	e24cb004 	sub	fp, ip, #4	; 0x4
 140:	e24dd00c 	sub	sp, sp, #12	; 0xc
 144:	e50b0010 	str	r0, [fp, #-16]
 148:	e51b3010 	ldr	r3, [fp, #-16]
 14c:	e50b3014 	str	r3, [fp, #-20]
 150:	e51b3014 	ldr	r3, [fp, #-20]
 154:	e3530000 	cmp	r3, #0	; 0x0
 158:	da00000c 	ble	190 <delay+0x5c>
 15c:	e3a030c8 	mov	r3, #200	; 0xc8
 160:	e50b3018 	str	r3, [fp, #-24]
 164:	e51b3018 	ldr	r3, [fp, #-24]
 168:	e3530000 	cmp	r3, #0	; 0x0
 16c:	da000003 	ble	180 <delay+0x4c>
 170:	e51b3018 	ldr	r3, [fp, #-24]
 174:	e2433001 	sub	r3, r3, #1	; 0x1
 178:	e50b3018 	str	r3, [fp, #-24]
 17c:	eafffff8 	b	164 <delay+0x30>
 180:	e51b3014 	ldr	r3, [fp, #-20]
 184:	e2433001 	sub	r3, r3, #1	; 0x1
 188:	e50b3014 	str	r3, [fp, #-20]
 18c:	eaffffef 	b	150 <delay+0x1c>
 190:	e24bd00c 	sub	sp, fp, #12	; 0xc
 194:	e89da800 	ldmia	sp, {fp, sp, pc}

00000198 <uart0_init>:
 198:	e1a0c00d 	mov	ip, sp
 19c:	e92dd800 	stmdb	sp!, {fp, ip, lr, pc}
 1a0:	e24cb004 	sub	fp, ip, #4	; 0x4
 1a4:	e3a02456 	mov	r2, #1442840576	; 0x56000000
 1a8:	e2822070 	add	r2, r2, #112	; 0x70
 1ac:	e3a03456 	mov	r3, #1442840576	; 0x56000000
 1b0:	e2833070 	add	r3, r3, #112	; 0x70
 1b4:	e5933000 	ldr	r3, [r3]
 1b8:	e3c330f0 	bic	r3, r3, #240	; 0xf0
 1bc:	e5823000 	str	r3, [r2]
 1c0:	e3a02456 	mov	r2, #1442840576	; 0x56000000
 1c4:	e2822070 	add	r2, r2, #112	; 0x70
 1c8:	e3a03456 	mov	r3, #1442840576	; 0x56000000
 1cc:	e2833070 	add	r3, r3, #112	; 0x70
 1d0:	e5933000 	ldr	r3, [r3]
 1d4:	e38330a0 	orr	r3, r3, #160	; 0xa0
 1d8:	e5823000 	str	r3, [r2]
 1dc:	e3a02456 	mov	r2, #1442840576	; 0x56000000
 1e0:	e2822078 	add	r2, r2, #120	; 0x78
 1e4:	e3a03456 	mov	r3, #1442840576	; 0x56000000
 1e8:	e2833078 	add	r3, r3, #120	; 0x78
 1ec:	e5933000 	ldr	r3, [r3]
 1f0:	e3c3300c 	bic	r3, r3, #12	; 0xc
 1f4:	e5823000 	str	r3, [r2]
 1f8:	e3a02245 	mov	r2, #1342177284	; 0x50000004
 1fc:	e3a03005 	mov	r3, #5	; 0x5
 200:	e5823000 	str	r3, [r2]
 204:	e3a02205 	mov	r2, #1342177280	; 0x50000000
 208:	e3a03003 	mov	r3, #3	; 0x3
 20c:	e5823000 	str	r3, [r2]
 210:	e3a03205 	mov	r3, #1342177280	; 0x50000000
 214:	e2833028 	add	r3, r3, #40	; 0x28
 218:	e3a0201a 	mov	r2, #26	; 0x1a
 21c:	e5832000 	str	r2, [r3]
 220:	e89da800 	ldmia	sp, {fp, sp, pc}

00000224 <putchar>:
 224:	e1a0c00d 	mov	ip, sp
 228:	e92dd800 	stmdb	sp!, {fp, ip, lr, pc}
 22c:	e24cb004 	sub	fp, ip, #4	; 0x4
 230:	e24dd004 	sub	sp, sp, #4	; 0x4
 234:	e50b0010 	str	r0, [fp, #-16]
 238:	e3a03205 	mov	r3, #1342177280	; 0x50000000
 23c:	e2833010 	add	r3, r3, #16	; 0x10
 240:	e5933000 	ldr	r3, [r3]
 244:	e2033004 	and	r3, r3, #4	; 0x4
 248:	e3530000 	cmp	r3, #0	; 0x0
 24c:	1a000000 	bne	254 <putchar+0x30>
 250:	eafffff8 	b	238 <putchar+0x14>
 254:	e3a03205 	mov	r3, #1342177280	; 0x50000000
 258:	e2833020 	add	r3, r3, #32	; 0x20
 25c:	e51b2010 	ldr	r2, [fp, #-16]
 260:	e5c32000 	strb	r2, [r3]
 264:	e1a00003 	mov	r0, r3
 268:	e89da808 	ldmia	sp, {r3, fp, sp, pc}

0000026c <getchar>:
 26c:	e1a0c00d 	mov	ip, sp
 270:	e92dd800 	stmdb	sp!, {fp, ip, lr, pc}
 274:	e24cb004 	sub	fp, ip, #4	; 0x4
 278:	e3a03205 	mov	r3, #1342177280	; 0x50000000
 27c:	e2833010 	add	r3, r3, #16	; 0x10
 280:	e5933000 	ldr	r3, [r3]
 284:	e2033001 	and	r3, r3, #1	; 0x1
 288:	e3530000 	cmp	r3, #0	; 0x0
 28c:	1a000000 	bne	294 <getchar+0x28>
 290:	eafffff8 	b	278 <getchar+0xc>
 294:	e3a03205 	mov	r3, #1342177280	; 0x50000000
 298:	e2833024 	add	r3, r3, #36	; 0x24
 29c:	e5d33000 	ldrb	r3, [r3]
 2a0:	e20330ff 	and	r3, r3, #255	; 0xff
 2a4:	e1a00003 	mov	r0, r3
 2a8:	e89da800 	ldmia	sp, {fp, sp, pc}

000002ac <puts>:
 2ac:	e1a0c00d 	mov	ip, sp
 2b0:	e92dd800 	stmdb	sp!, {fp, ip, lr, pc}
 2b4:	e24cb004 	sub	fp, ip, #4	; 0x4
 2b8:	e24dd004 	sub	sp, sp, #4	; 0x4
 2bc:	e50b0010 	str	r0, [fp, #-16]
 2c0:	e51b3010 	ldr	r3, [fp, #-16]
 2c4:	e5d33000 	ldrb	r3, [r3]
 2c8:	e3530000 	cmp	r3, #0	; 0x0
 2cc:	0a000007 	beq	2f0 <puts+0x44>
 2d0:	e51b3010 	ldr	r3, [fp, #-16]
 2d4:	e5d33000 	ldrb	r3, [r3]
 2d8:	e1a00003 	mov	r0, r3
 2dc:	ebffffd0 	bl	224 <putchar>
 2e0:	e51b3010 	ldr	r3, [fp, #-16]
 2e4:	e2833001 	add	r3, r3, #1	; 0x1
 2e8:	e50b3010 	str	r3, [fp, #-16]
 2ec:	eafffff3 	b	2c0 <puts+0x14>
 2f0:	e1a00003 	mov	r0, r3
 2f4:	e89da808 	ldmia	sp, {r3, fp, sp, pc}

000002f8 <main>:
 2f8:	e1a0c00d 	mov	ip, sp
 2fc:	e92dd800 	stmdb	sp!, {fp, ip, lr, pc}
 300:	e24cb004 	sub	fp, ip, #4	; 0x4
 304:	e24dd008 	sub	sp, sp, #8	; 0x8
 308:	ebffffa2 	bl	198 <uart0_init>
 30c:	ebffffd6 	bl	26c <getchar>
 310:	e1a03000 	mov	r3, r0
 314:	e54b300d 	strb	r3, [fp, #-13]
 318:	e55b300d 	ldrb	r3, [fp, #-13]
 31c:	e1a00003 	mov	r0, r3
 320:	ebffffbf 	bl	224 <putchar>
 324:	e55b300d 	ldrb	r3, [fp, #-13]
 328:	e353002f 	cmp	r3, #47	; 0x2f
 32c:	9a000007 	bls	350 <main+0x58>
 330:	e55b300d 	ldrb	r3, [fp, #-13]
 334:	e3530037 	cmp	r3, #55	; 0x37
 338:	8a000004 	bhi	350 <main+0x58>
 33c:	e55b300d 	ldrb	r3, [fp, #-13]
 340:	e2433030 	sub	r3, r3, #48	; 0x30
 344:	e1a00003 	mov	r0, r3
 348:	ebffff46 	bl	68 <set_nor_tacc>
 34c:	ea000004 	b	364 <main+0x6c>
 350:	e59f0020 	ldr	r0, [pc, #32]	; 378 <.text+0x378>
 354:	ebffffd4 	bl	2ac <puts>
 358:	e3a03000 	mov	r3, #0	; 0x0
 35c:	e50b3014 	str	r3, [fp, #-20]
 360:	ea000001 	b	36c <main+0x74>
 364:	ebffff4e 	bl	a4 <led_init>
 368:	eaffffed 	b	324 <main+0x2c>
 36c:	e51b0014 	ldr	r0, [fp, #-20]
 370:	e24bd00c 	sub	sp, fp, #12	; 0xc
 374:	e89da800 	ldmia	sp, {fp, sp, pc}
 378:	0000037c 	andeq	r0, r0, ip, ror r3